target datalayout = "e-m:e-p270:32:32-p271:32:32-p272:64:64-i64:64-i128:128-f80:128-n8:16:32:64-S128"
target triple = "x86_64-pc-linux-gnu"

%struct.H265RawSliceHeader = type { %struct.H265RawNALUnitHeader, i8, i8, i8, i8, i16, [8 x i8], i8, i8, i8, i16, i8, %struct.H265RawSTRefPicSet, i8, i8, i8, [16 x i8], [16 x i8], [16 x i8], [16 x i8], [16 x i32], i8, i8, i8, i8, i8, i8, i8, [16 x i8], i8, [16 x i8], i8, i8, i8, i8, i8, i8, [16 x i8], [16 x i8], [16 x i8], [16 x i16], [16 x [2 x i8]], [16 x [2 x i16]], [16 x i8], [16 x i8], [16 x i8], [16 x i16], [16 x [2 x i8]], [16 x [2 x i16]], i8, i8, i8, i8, i8, i8, i8, i8, i8, i8, i8, i8, i8, i8, i16, i8, [2700 x i32], i16, [256 x i8] }
%struct.H265RawNALUnitHeader = type { i8, i8, i8 }
%struct.H265RawSTRefPicSet = type { i8, i8, i8, i16, [16 x i8], [16 x i8], i8, i8, [16 x i16], [16 x i8], [16 x i16], [16 x i8] }

@ff_log2_tab = external constant [256 x i8], align 16
@.str.180 = private unnamed_addr constant [34 x i8] c"ref_pic_list_modification_flag_l0\00", align 1
@.str.184 = private unnamed_addr constant [34 x i8] c"ref_pic_list_modification_flag_l1\00", align 1
@.str.588 = private unnamed_addr constant [17 x i8] c"list_entry_l0[i]\00", align 1
@.str.589 = private unnamed_addr constant [17 x i8] c"list_entry_l1[i]\00", align 1

; Function Attrs: alwaysinline nounwind willreturn memory(none) uwtable
define internal i32 @ff_log2_c(i32 noundef %0) #5 {
  %2 = alloca i32, align 4
  %3 = alloca i32, align 4
  store i32 %0, ptr %2, align 4, !tbaa !11
  call void @llvm.lifetime.start.p0(i64 4, ptr %3) #11
  store i32 0, ptr %3, align 4, !tbaa !11
  %4 = load i32, ptr %2, align 4, !tbaa !11
  %5 = and i32 %4, -65536
  %6 = icmp ne i32 %5, 0
  br i1 %6, label %7, label %12

7:                                                ; preds = %1
  %8 = load i32, ptr %2, align 4, !tbaa !11
  %9 = lshr i32 %8, 16
  store i32 %9, ptr %2, align 4, !tbaa !11
  %10 = load i32, ptr %3, align 4, !tbaa !11
  %11 = add nsw i32 %10, 16
  store i32 %11, ptr %3, align 4, !tbaa !11
  br label %12

12:                                               ; preds = %7, %1
  %13 = load i32, ptr %2, align 4, !tbaa !11
  %14 = and i32 %13, 65280
  %15 = icmp ne i32 %14, 0
  br i1 %15, label %16, label %21

16:                                               ; preds = %12
  %17 = load i32, ptr %2, align 4, !tbaa !11
  %18 = lshr i32 %17, 8
  store i32 %18, ptr %2, align 4, !tbaa !11
  %19 = load i32, ptr %3, align 4, !tbaa !11
  %20 = add nsw i32 %19, 8
  store i32 %20, ptr %3, align 4, !tbaa !11
  br label %21

21:                                               ; preds = %16, %12
  %22 = load i32, ptr %2, align 4, !tbaa !11
  %23 = zext i32 %22 to i64
  %24 = getelementptr inbounds nuw [256 x i8], ptr @ff_log2_tab, i64 0, i64 %23
  %25 = load i8, ptr %24, align 1, !tbaa !32
  %26 = zext i8 %25 to i32
  %27 = load i32, ptr %3, align 4, !tbaa !11
  %28 = add nsw i32 %27, %26
  store i32 %28, ptr %3, align 4, !tbaa !11
  %29 = load i32, ptr %3, align 4, !tbaa !11
  call void @llvm.lifetime.end.p0(i64 4, ptr %3) #11
  ret i32 %29
}

; Function Attrs: nounwind uwtable
define internal i32 @cbs_h265_read_ref_pic_lists_modification(ptr noundef %0, ptr noundef %1, ptr noundef %2, i32 noundef %3) #0 {
  %5 = alloca i32, align 4
  %6 = alloca ptr, align 8
  %7 = alloca ptr, align 8
  %8 = alloca ptr, align 8
  %9 = alloca i32, align 4
  %10 = alloca i32, align 4
  %11 = alloca i32, align 4
  %12 = alloca i32, align 4
  %13 = alloca i32, align 4
  %14 = alloca i32, align 4
  %15 = alloca i32, align 4
  %16 = alloca [2 x i32], align 4
  %17 = alloca i32, align 4
  %18 = alloca i32, align 4
  %19 = alloca [2 x i32], align 4
  store ptr %0, ptr %6, align 8, !tbaa !4
  store ptr %1, ptr %7, align 8, !tbaa !196
  store ptr %2, ptr %8, align 8, !tbaa !115
  store i32 %3, ptr %9, align 4, !tbaa !11
  call void @llvm.lifetime.start.p0(i64 4, ptr %10) #11
  call void @llvm.lifetime.start.p0(i64 4, ptr %11) #11
  call void @llvm.lifetime.start.p0(i64 4, ptr %12) #11
  %20 = load i32, ptr %9, align 4, !tbaa !11
  %21 = sub i32 %20, 1
  %22 = call i32 @ff_log2_c(i32 noundef %21) #13
  %23 = add nsw i32 %22, 1
  store i32 %23, ptr %10, align 4, !tbaa !11
  br label %24

24:                                               ; preds = %4
  call void @llvm.lifetime.start.p0(i64 4, ptr %13) #11
  br label %25

25:                                               ; preds = %24
  %26 = load ptr, ptr %6, align 8, !tbaa !4
  %27 = load ptr, ptr %7, align 8, !tbaa !196
  %28 = call i32 @ff_cbs_read_simple_unsigned(ptr noundef %26, ptr noundef %27, i32 noundef 1, ptr noundef @.str.180, ptr noundef %13)
  store i32 %28, ptr %11, align 4, !tbaa !11
  %29 = load i32, ptr %11, align 4, !tbaa !11
  %30 = icmp slt i32 %29, 0
  br i1 %30, label %31, label %33

31:                                               ; preds = %25
  %32 = load i32, ptr %11, align 4, !tbaa !11
  store i32 %32, ptr %5, align 4
  store i32 1, ptr %14, align 4
  br label %40

33:                                               ; preds = %25
  br label %34

34:                                               ; preds = %33
  br label %35

35:                                               ; preds = %34
  %36 = load i32, ptr %13, align 4, !tbaa !11
  %37 = trunc i32 %36 to i8
  %38 = load ptr, ptr %8, align 8, !tbaa !115
  %39 = getelementptr inbounds nuw %struct.H265RawSliceHeader, ptr %38, i32 0, i32 27
  store i8 %37, ptr %39, align 2, !tbaa !836
  store i32 0, ptr %14, align 4
  br label %40

40:                                               ; preds = %35, %31
  call void @llvm.lifetime.end.p0(i64 4, ptr %13) #11
  %41 = load i32, ptr %14, align 4
  switch i32 %41, label %169 [
    i32 0, label %42
  ]

42:                                               ; preds = %40
  br label %43

43:                                               ; preds = %42
  br label %44

44:                                               ; preds = %43
  %45 = load ptr, ptr %8, align 8, !tbaa !115
  %46 = getelementptr inbounds nuw %struct.H265RawSliceHeader, ptr %45, i32 0, i32 27
  %47 = load i8, ptr %46, align 2, !tbaa !836
  %48 = icmp ne i8 %47, 0
  br i1 %48, label %49, label %92

49:                                               ; preds = %44
  store i32 0, ptr %12, align 4, !tbaa !11
  br label %50

50:                                               ; preds = %88, %49
  %51 = load i32, ptr %12, align 4, !tbaa !11
  %52 = load ptr, ptr %8, align 8, !tbaa !115
  %53 = getelementptr inbounds nuw %struct.H265RawSliceHeader, ptr %52, i32 0, i32 25
  %54 = load i8, ptr %53, align 4, !tbaa !618
  %55 = zext i8 %54 to i32
  %56 = icmp sle i32 %51, %55
  br i1 %56, label %57, label %91

57:                                               ; preds = %50
  br label %58

58:                                               ; preds = %57
  call void @llvm.lifetime.start.p0(i64 4, ptr %15) #11
  br label %59

59:                                               ; preds = %58
  %60 = load ptr, ptr %6, align 8, !tbaa !4
  %61 = load ptr, ptr %7, align 8, !tbaa !196
  %62 = load i32, ptr %10, align 4, !tbaa !11
  store i32 1, ptr %16, align 4, !tbaa !11
  %63 = getelementptr inbounds i32, ptr %16, i64 1
  %64 = load i32, ptr %12, align 4, !tbaa !11
  store i32 %64, ptr %63, align 4, !tbaa !11
  %65 = getelementptr inbounds [2 x i32], ptr %16, i64 0, i64 0
  %66 = load i32, ptr %9, align 4, !tbaa !11
  %67 = sub i32 %66, 1
  %68 = call i32 @ff_cbs_read_unsigned(ptr noundef %60, ptr noundef %61, i32 noundef %62, ptr noundef @.str.588, ptr noundef %65, ptr noundef %15, i32 noundef 0, i32 noundef %67)
  store i32 %68, ptr %11, align 4, !tbaa !11
  %69 = load i32, ptr %11, align 4, !tbaa !11
  %70 = icmp slt i32 %69, 0
  br i1 %70, label %71, label %73

71:                                               ; preds = %59
  %72 = load i32, ptr %11, align 4, !tbaa !11
  store i32 %72, ptr %5, align 4
  store i32 1, ptr %14, align 4
  br label %83

73:                                               ; preds = %59
  br label %74

74:                                               ; preds = %73
  br label %75

75:                                               ; preds = %74
  %76 = load i32, ptr %15, align 4, !tbaa !11
  %77 = trunc i32 %76 to i8
  %78 = load ptr, ptr %8, align 8, !tbaa !115
  %79 = getelementptr inbounds nuw %struct.H265RawSliceHeader, ptr %78, i32 0, i32 28
  %80 = load i32, ptr %12, align 4, !tbaa !11
  %81 = sext i32 %80 to i64
  %82 = getelementptr inbounds [16 x i8], ptr %79, i64 0, i64 %81
  store i8 %77, ptr %82, align 1, !tbaa !32
  store i32 0, ptr %14, align 4
  br label %83

83:                                               ; preds = %75, %71
  call void @llvm.lifetime.end.p0(i64 4, ptr %15) #11
  %84 = load i32, ptr %14, align 4
  switch i32 %84, label %169 [
    i32 0, label %85
  ]

85:                                               ; preds = %83
  br label %86

86:                                               ; preds = %85
  br label %87

87:                                               ; preds = %86
  br label %88

88:                                               ; preds = %87
  %89 = load i32, ptr %12, align 4, !tbaa !11
  %90 = add nsw i32 %89, 1
  store i32 %90, ptr %12, align 4, !tbaa !11
  br label %50, !llvm.loop !837

91:                                               ; preds = %50
  br label %92

92:                                               ; preds = %91, %44
  %93 = load ptr, ptr %8, align 8, !tbaa !115
  %94 = getelementptr inbounds nuw %struct.H265RawSliceHeader, ptr %93, i32 0, i32 7
  %95 = load i8, ptr %94, align 2, !tbaa !117
  %96 = zext i8 %95 to i32
  %97 = icmp eq i32 %96, 0
  br i1 %97, label %98, label %168

98:                                               ; preds = %92
  br label %99

99:                                               ; preds = %98
  call void @llvm.lifetime.start.p0(i64 4, ptr %17) #11
  br label %100

100:                                              ; preds = %99
  %101 = load ptr, ptr %6, align 8, !tbaa !4
  %102 = load ptr, ptr %7, align 8, !tbaa !196
  %103 = call i32 @ff_cbs_read_simple_unsigned(ptr noundef %101, ptr noundef %102, i32 noundef 1, ptr noundef @.str.184, ptr noundef %17)
  store i32 %103, ptr %11, align 4, !tbaa !11
  %104 = load i32, ptr %11, align 4, !tbaa !11
  %105 = icmp slt i32 %104, 0
  br i1 %105, label %106, label %108

106:                                              ; preds = %100
  %107 = load i32, ptr %11, align 4, !tbaa !11
  store i32 %107, ptr %5, align 4
  store i32 1, ptr %14, align 4
  br label %115

108:                                              ; preds = %100
  br label %109

109:                                              ; preds = %108
  br label %110

110:                                              ; preds = %109
  %111 = load i32, ptr %17, align 4, !tbaa !11
  %112 = trunc i32 %111 to i8
  %113 = load ptr, ptr %8, align 8, !tbaa !115
  %114 = getelementptr inbounds nuw %struct.H265RawSliceHeader, ptr %113, i32 0, i32 29
  store i8 %112, ptr %114, align 1, !tbaa !838
  store i32 0, ptr %14, align 4
  br label %115

115:                                              ; preds = %110, %106
  call void @llvm.lifetime.end.p0(i64 4, ptr %17) #11
  %116 = load i32, ptr %14, align 4
  switch i32 %116, label %169 [
    i32 0, label %117
  ]

117:                                              ; preds = %115
  br label %118

118:                                              ; preds = %117
  br label %119

119:                                              ; preds = %118
  %120 = load ptr, ptr %8, align 8, !tbaa !115
  %121 = getelementptr inbounds nuw %struct.H265RawSliceHeader, ptr %120, i32 0, i32 29
  %122 = load i8, ptr %121, align 1, !tbaa !838
  %123 = icmp ne i8 %122, 0
  br i1 %123, label %124, label %167

124:                                              ; preds = %119
  store i32 0, ptr %12, align 4, !tbaa !11
  br label %125

125:                                              ; preds = %163, %124
  %126 = load i32, ptr %12, align 4, !tbaa !11
  %127 = load ptr, ptr %8, align 8, !tbaa !115
  %128 = getelementptr inbounds nuw %struct.H265RawSliceHeader, ptr %127, i32 0, i32 26
  %129 = load i8, ptr %128, align 1, !tbaa !619
  %130 = zext i8 %129 to i32
  %131 = icmp sle i32 %126, %130
  br i1 %131, label %132, label %166

132:                                              ; preds = %125
  br label %133

133:                                              ; preds = %132
  call void @llvm.lifetime.start.p0(i64 4, ptr %18) #11
  br label %134

134:                                              ; preds = %133
  %135 = load ptr, ptr %6, align 8, !tbaa !4
  %136 = load ptr, ptr %7, align 8, !tbaa !196
  %137 = load i32, ptr %10, align 4, !tbaa !11
  store i32 1, ptr %19, align 4, !tbaa !11
  %138 = getelementptr inbounds i32, ptr %19, i64 1
  %139 = load i32, ptr %12, align 4, !tbaa !11
  store i32 %139, ptr %138, align 4, !tbaa !11
  %140 = getelementptr inbounds [2 x i32], ptr %19, i64 0, i64 0
  %141 = load i32, ptr %9, align 4, !tbaa !11
  %142 = sub i32 %141, 1
  %143 = call i32 @ff_cbs_read_unsigned(ptr noundef %135, ptr noundef %136, i32 noundef %137, ptr noundef @.str.589, ptr noundef %140, ptr noundef %18, i32 noundef 0, i32 noundef %142)
  store i32 %143, ptr %11, align 4, !tbaa !11
  %144 = load i32, ptr %11, align 4, !tbaa !11
  %145 = icmp slt i32 %144, 0
  br i1 %145, label %146, label %148

146:                                              ; preds = %134
  %147 = load i32, ptr %11, align 4, !tbaa !11
  store i32 %147, ptr %5, align 4
  store i32 1, ptr %14, align 4
  br label %158

148:                                              ; preds = %134
  br label %149

149:                                              ; preds = %148
  br label %150

150:                                              ; preds = %149
  %151 = load i32, ptr %18, align 4, !tbaa !11
  %152 = trunc i32 %151 to i8
  %153 = load ptr, ptr %8, align 8, !tbaa !115
  %154 = getelementptr inbounds nuw %struct.H265RawSliceHeader, ptr %153, i32 0, i32 30
  %155 = load i32, ptr %12, align 4, !tbaa !11
  %156 = sext i32 %155 to i64
  %157 = getelementptr inbounds [16 x i8], ptr %154, i64 0, i64 %156
  store i8 %152, ptr %157, align 1, !tbaa !32
  store i32 0, ptr %14, align 4
  br label %158

158:                                              ; preds = %150, %146
  call void @llvm.lifetime.end.p0(i64 4, ptr %18) #11
  %159 = load i32, ptr %14, align 4
  switch i32 %159, label %169 [
    i32 0, label %160
  ]

160:                                              ; preds = %158
  br label %161

161:                                              ; preds = %160
  br label %162

162:                                              ; preds = %161
  br label %163

163:                                              ; preds = %162
  %164 = load i32, ptr %12, align 4, !tbaa !11
  %165 = add nsw i32 %164, 1
  store i32 %165, ptr %12, align 4, !tbaa !11
  br label %125, !llvm.loop !839

166:                                              ; preds = %125
  br label %167

167:                                              ; preds = %166, %119
  br label %168

168:                                              ; preds = %167, %92
  store i32 0, ptr %5, align 4
  store i32 1, ptr %14, align 4
  br label %169

169:                                              ; preds = %168, %158, %115, %83, %40
  call void @llvm.lifetime.end.p0(i64 4, ptr %12) #11
  call void @llvm.lifetime.end.p0(i64 4, ptr %11) #11
  call void @llvm.lifetime.end.p0(i64 4, ptr %10) #11
  %170 = load i32, ptr %5, align 4
  ret i32 %170
}