; Function Attrs: nounwind uwtable
define internal fastcc range(i32 -2147483648, 1) i32 @cbs_h265_read_ref_pic_lists_modification(ptr noundef %0, ptr noundef nonnull %1, ptr noundef captures(none) %2, i32 noundef range(i32 2, 0) %3) unnamed_addr #0 {
  %5 = alloca i32, align 4
  %6 = alloca i32, align 4
  %7 = alloca [2 x i32], align 4
  %8 = alloca i32, align 4
  %9 = alloca i32, align 4
  %10 = alloca [2 x i32], align 4
  %11 = add i32 %3, -1
  %.not.i = icmp ult i32 %3, 65537
  %12 = lshr i32 %11, 16
  %spec.select.i = select i1 %.not.i, i32 %11, i32 %12
  %spec.select12.i = select i1 %.not.i, i32 0, i32 16
  %.not11.i = icmp samesign ult i32 %spec.select.i, 256
  %13 = lshr i32 %spec.select.i, 8
  %14 = or disjoint i32 %spec.select12.i, 8
  %.110.i = select i1 %.not11.i, i32 %spec.select.i, i32 %13
  %.1.i = select i1 %.not11.i, i32 %spec.select12.i, i32 %14
  %15 = zext nneg i32 %.110.i to i64
  %16 = getelementptr inbounds nuw [256 x i8], ptr @ff_log2_tab, i64 0, i64 %15
  %17 = load i8, ptr %16, align 1, !tbaa !25
  %18 = zext i8 %17 to i32
  %19 = or disjoint i32 %.1.i, 1
  %20 = add nuw nsw i32 %19, %18
  call void @llvm.lifetime.start.p0(i64 4, ptr nonnull %5) #11
  %21 = call i32 @ff_cbs_read_simple_unsigned(ptr noundef %0, ptr noundef nonnull %1, i32 noundef 1, ptr noundef nonnull @.str.180, ptr noundef nonnull %5) #11
  %22 = icmp sgt i32 %21, -1
  br i1 %22, label %23, label %.critedge

23:                                               ; preds = %4
  %24 = load i32, ptr %5, align 4, !tbaa !63
  %25 = trunc i32 %24 to i8
  %26 = getelementptr inbounds nuw i8, ptr %2, i64 302
  store i8 %25, ptr %26, align 2, !tbaa !1119
  call void @llvm.lifetime.end.p0(i64 4, ptr nonnull %5) #11
  %.not = icmp eq i8 %25, 0
  br i1 %.not, label %.loopexit66, label %.preheader65

.preheader65:                                     ; preds = %23
  %27 = getelementptr inbounds nuw i8, ptr %2, i64 300
  %28 = getelementptr inbounds nuw i8, ptr %7, i64 4
  %29 = getelementptr inbounds nuw i8, ptr %2, i64 303
  br label %30

30:                                               ; preds = %.preheader65, %35
  %indvars.iv = phi i64 [ 0, %.preheader65 ], [ %indvars.iv.next, %35 ]
  call void @llvm.lifetime.start.p0(i64 4, ptr nonnull %6) #11
  store i32 1, ptr %7, align 4, !tbaa !63
  %31 = trunc nuw nsw i64 %indvars.iv to i32
  store i32 %31, ptr %28, align 4, !tbaa !63
  %32 = call i32 @ff_cbs_read_unsigned(ptr noundef %0, ptr noundef nonnull %1, i32 noundef %20, ptr noundef nonnull @.str.588, ptr noundef nonnull %7, ptr noundef nonnull %6, i32 noundef 0, i32 noundef %11) #11
  %33 = icmp sgt i32 %32, -1
  br i1 %33, label %35, label %34

34:                                               ; preds = %30
  call void @llvm.lifetime.end.p0(i64 4, ptr nonnull %6) #11
  br label %.loopexit

35:                                               ; preds = %30
  %36 = load i32, ptr %6, align 4, !tbaa !63
  %37 = trunc i32 %36 to i8
  %38 = getelementptr inbounds nuw [16 x i8], ptr %29, i64 0, i64 %indvars.iv
  store i8 %37, ptr %38, align 1, !tbaa !25
  call void @llvm.lifetime.end.p0(i64 4, ptr nonnull %6) #11
  %indvars.iv.next = add nuw nsw i64 %indvars.iv, 1
  %39 = load i8, ptr %27, align 4, !tbaa !284
  %40 = zext i8 %39 to i64
  %.not54.not = icmp samesign ult i64 %indvars.iv, %40
  br i1 %.not54.not, label %30, label %.loopexit66, !llvm.loop !1120

.loopexit66:                                      ; preds = %35, %23
  %41 = getelementptr inbounds nuw i8, ptr %2, i64 18
  %42 = load i8, ptr %41, align 2, !tbaa !255
  %43 = icmp eq i8 %42, 0
  br i1 %43, label %44, label %.loopexit

44:                                               ; preds = %.loopexit66
  call void @llvm.lifetime.start.p0(i64 4, ptr nonnull %8) #11
  %45 = call i32 @ff_cbs_read_simple_unsigned(ptr noundef %0, ptr noundef nonnull %1, i32 noundef 1, ptr noundef nonnull @.str.184, ptr noundef nonnull %8) #11
  %46 = icmp sgt i32 %45, -1
  br i1 %46, label %48, label %47

47:                                               ; preds = %44
  call void @llvm.lifetime.end.p0(i64 4, ptr nonnull %8) #11
  br label %.loopexit

48:                                               ; preds = %44
  %49 = load i32, ptr %8, align 4, !tbaa !63
  %50 = trunc i32 %49 to i8
  %51 = getelementptr inbounds nuw i8, ptr %2, i64 319
  store i8 %50, ptr %51, align 1, !tbaa !1121
  call void @llvm.lifetime.end.p0(i64 4, ptr nonnull %8) #11
  %.not55 = icmp eq i8 %50, 0
  br i1 %.not55, label %.loopexit, label %.preheader

.preheader:                                       ; preds = %48
  %52 = getelementptr inbounds nuw i8, ptr %2, i64 301
  %53 = getelementptr inbounds nuw i8, ptr %10, i64 4
  %54 = getelementptr inbounds nuw i8, ptr %2, i64 320
  br label %55

55:                                               ; preds = %.preheader, %60
  %indvars.iv74 = phi i64 [ 0, %.preheader ], [ %indvars.iv.next75, %60 ]
  call void @llvm.lifetime.start.p0(i64 4, ptr nonnull %9) #11
  store i32 1, ptr %10, align 4, !tbaa !63
  %56 = trunc nuw nsw i64 %indvars.iv74 to i32
  store i32 %56, ptr %53, align 4, !tbaa !63
  %57 = call i32 @ff_cbs_read_unsigned(ptr noundef %0, ptr noundef nonnull %1, i32 noundef %20, ptr noundef nonnull @.str.589, ptr noundef nonnull %10, ptr noundef nonnull %9, i32 noundef 0, i32 noundef %11) #11
  %58 = icmp sgt i32 %57, -1
  br i1 %58, label %60, label %59

59:                                               ; preds = %55
  call void @llvm.lifetime.end.p0(i64 4, ptr nonnull %9) #11
  br label %.loopexit

60:                                               ; preds = %55
  %61 = load i32, ptr %9, align 4, !tbaa !63
  %62 = trunc i32 %61 to i8
  %63 = getelementptr inbounds nuw [16 x i8], ptr %54, i64 0, i64 %indvars.iv74
  store i8 %62, ptr %63, align 1, !tbaa !25
  call void @llvm.lifetime.end.p0(i64 4, ptr nonnull %9) #11
  %indvars.iv.next75 = add nuw nsw i64 %indvars.iv74, 1
  %64 = load i8, ptr %52, align 1, !tbaa !285
  %65 = zext i8 %64 to i64
  %.not56.not = icmp samesign ult i64 %indvars.iv74, %65
  br i1 %.not56.not, label %55, label %.loopexit, !llvm.loop !1122

.critedge:                                        ; preds = %4
  call void @llvm.lifetime.end.p0(i64 4, ptr nonnull %5) #11
  br label %.loopexit

.loopexit:                                        ; preds = %60, %59, %47, %34, %.loopexit66, %48, %.critedge
  %.148 = phi i32 [ %32, %34 ], [ %57, %59 ], [ %45, %47 ], [ %21, %.critedge ], [ 0, %48 ], [ 0, %.loopexit66 ], [ 0, %60 ]
  ret i32 %.148
}